; Function Attrs: nounwind uwtable
define hidden void @zim_MultipleIterator___construct(ptr nocapture noundef readonly %0, ptr nocapture readnone %1) #0 {
  %3 = alloca i64, align 8
  store i64 1, ptr %3, align 8
  %4 = getelementptr inbounds i8, ptr %0, i64 44
  %5 = load i32, ptr %4, align 4
  %6 = call i32 (i32, ptr, ...) @zend_parse_parameters(i32 noundef %5, ptr noundef nonnull @.str.2, ptr noundef nonnull %3) #10
  %7 = icmp eq i32 %6, -1
  br i1 %7, label %8, label %11

8:                                                ; preds = %2
  %9 = load ptr, ptr getelementptr inbounds (%struct._zend_executor_globals, ptr @executor_globals, i64 0, i32 50), align 8
  %10 = icmp ne ptr %9, null
  call void @llvm.assume(i1 %10)
  br label %16

11:                                               ; preds = %2
  %12 = getelementptr inbounds i8, ptr %0, i64 32
  %13 = load ptr, ptr %12, align 8
  %14 = load i64, ptr %3, align 8
  %15 = getelementptr inbounds i8, ptr %13, i64 -16
  store i64 %14, ptr %15, align 8
  br label %16

16:                                               ; preds = %11, %8
  ret void
}